; Function Attrs: mustprogress uwtable
define void @_ZNK8facebook5velox4core12HashJoinNode9serializeEv(ptr noalias sret(%"struct.folly::dynamic") align 8 %agg.result, ptr noundef nonnull align 8 dereferenceable(153) %this) unnamed_addr #0 align 2 personality ptr @__gxx_personality_v0 {
invoke.cont:
  %ref.tmp = alloca %"struct.folly::dynamic", align 8
  tail call void @_ZNK8facebook5velox4core16AbstractJoinNode13serializeBaseEv(ptr sret(%"struct.folly::dynamic") align 8 %agg.result, ptr noundef nonnull align 8 dereferenceable(152) %this)
  %nullAware_ = getelementptr inbounds i8, ptr %this, i64 152
  %0 = load i8, ptr %nullAware_, align 8
  %1 = and i8 %0, 1
  %u_.i = getelementptr inbounds i8, ptr %ref.tmp, i64 8
  store ptr null, ptr %u_.i, align 8
  store i32 2, ptr %ref.tmp, align 8
  store i8 %1, ptr %u_.i, align 8
  %call = invoke noundef nonnull align 8 dereferenceable(40) ptr @_ZNR5folly7dynamicixENS_5RangeIPKcEE(ptr noundef nonnull align 8 dereferenceable(40) %agg.result, ptr nonnull @.str.70, ptr nonnull getelementptr inbounds ([10 x i8], ptr @.str.70, i64 0, i64 9))
          to label %invoke.cont4 unwind label %lpad2

invoke.cont4:                                     ; preds = %invoke.cont
  %call5 = call noundef nonnull align 8 dereferenceable(40) ptr @_ZN5folly7dynamicaSEOS0_(ptr noundef nonnull align 8 dereferenceable(40) %call, ptr noundef nonnull align 8 dereferenceable(40) %ref.tmp) #30
  call void @_ZN5folly7dynamic7destroyEv(ptr noundef nonnull align 8 dereferenceable(40) %ref.tmp) #30
  ret void

lpad2:                                            ; preds = %invoke.cont
  %2 = landingpad { ptr, i32 }
          cleanup
  call void @_ZN5folly7dynamic7destroyEv(ptr noundef nonnull align 8 dereferenceable(40) %ref.tmp) #30
  call void @_ZN5folly7dynamic7destroyEv(ptr noundef nonnull align 8 dereferenceable(40) %agg.result) #30
  resume { ptr, i32 } %2
}